target datalayout = "e-m:e-p270:32:32-p271:32:32-p272:64:64-i64:64-i128:128-f80:128-n8:16:32:64-S128"
target triple = "x86_64-pc-linux-gnu"

%"class.datalog::compiler" = type { ptr, ptr, ptr, %class.obj_map, %class.vector, %class.obj_pair_map, %class.obj_pair_map.4, %class.obj_map.9, %"class.datalog::compiler::instruction_observer", %class.expr_free_vars }
%class.obj_map = type { %class.core_hashtable }
%class.core_hashtable = type <{ ptr, i32, i32, i32, [4 x i8] }>
%class.vector = type { ptr }
%class.obj_pair_map = type { %class.core_hashtable.0 }
%class.core_hashtable.0 = type <{ ptr, i32, i32, i32, [4 x i8] }>
%class.obj_pair_map.4 = type { %class.core_hashtable.5 }
%class.core_hashtable.5 = type <{ ptr, i32, i32, i32, [4 x i8] }>
%class.obj_map.9 = type { %class.core_hashtable.10 }
%class.core_hashtable.10 = type <{ ptr, i32, i32, i32, [4 x i8] }>
%"class.datalog::compiler::instruction_observer" = type { %"struct.datalog::instruction_block::instruction_observer", ptr, ptr }
%"struct.datalog::instruction_block::instruction_observer" = type { ptr }
%class.expr_free_vars = type { %class.expr_sparse_mark, %class.ptr_vector, %class.ptr_vector.17 }
%class.expr_sparse_mark = type { %class.obj_hashtable }
%class.obj_hashtable = type { %class.core_hashtable.base.15, [4 x i8] }
%class.core_hashtable.base.15 = type <{ ptr, i32, i32, i32 }>
%class.ptr_vector = type { %class.vector.16 }
%class.vector.16 = type { ptr }
%class.ptr_vector.17 = type { %class.vector.18 }
%class.vector.18 = type { ptr }
%class.vector.55 = type { ptr }
%"class.core_hashtable<obj_hash_entry<func_decl>, obj_ptr_hash<func_decl>, ptr_eq<func_decl>>::iterator" = type { ptr, ptr }
%class.core_hashtable.83 = type <{ ptr, i32, i32, i32, [4 x i8] }>
%class.obj_hash_entry.218 = type { ptr }

; Function Attrs: mustprogress nounwind uwtable
define linkonce_odr hidden noundef zeroext i1 @_ZNK14obj_hash_entryI9func_declE7is_usedEv(ptr noundef nonnull align 8 dereferenceable(8) %0) #7 comdat align 2 {
  %2 = alloca ptr, align 8
  store ptr %0, ptr %2, align 8, !tbaa !795
  %3 = load ptr, ptr %2, align 8
  %4 = getelementptr inbounds nuw %class.obj_hash_entry.218, ptr %3, i32 0, i32 0
  %5 = load ptr, ptr %4, align 8, !tbaa !798
  %6 = icmp ne ptr %5, null
  br i1 %6, label %7, label %11

7:                                                ; preds = %1
  %8 = getelementptr inbounds nuw %class.obj_hash_entry.218, ptr %3, i32 0, i32 0
  %9 = load ptr, ptr %8, align 8, !tbaa !798
  %10 = icmp ne ptr %9, inttoptr (i64 1 to ptr)
  br label %11

11:                                               ; preds = %7, %1
  %12 = phi i1 [ false, %1 ], [ %10, %7 ]
  ret i1 %12
}

; Function Attrs: mustprogress nounwind uwtable
define linkonce_odr hidden void @_ZN14core_hashtableI14obj_hash_entryI9func_declE12obj_ptr_hashIS1_E6ptr_eqIS1_EE8iterator12move_to_usedEv(ptr noundef nonnull align 8 dereferenceable(16) %0) #7 comdat align 2 {
  %2 = alloca ptr, align 8
  store ptr %0, ptr %2, align 8, !tbaa !277
  %3 = load ptr, ptr %2, align 8
  br label %4

4:                                                ; preds = %17, %1
  %5 = getelementptr inbounds nuw %"class.core_hashtable<obj_hash_entry<func_decl>, obj_ptr_hash<func_decl>, ptr_eq<func_decl>>::iterator", ptr %3, i32 0, i32 0
  %6 = load ptr, ptr %5, align 8, !tbaa !279
  %7 = getelementptr inbounds nuw %"class.core_hashtable<obj_hash_entry<func_decl>, obj_ptr_hash<func_decl>, ptr_eq<func_decl>>::iterator", ptr %3, i32 0, i32 1
  %8 = load ptr, ptr %7, align 8, !tbaa !880
  %9 = icmp ne ptr %6, %8
  br i1 %9, label %10, label %15

10:                                               ; preds = %4
  %11 = getelementptr inbounds nuw %"class.core_hashtable<obj_hash_entry<func_decl>, obj_ptr_hash<func_decl>, ptr_eq<func_decl>>::iterator", ptr %3, i32 0, i32 0
  %12 = load ptr, ptr %11, align 8, !tbaa !279
  %13 = call noundef zeroext i1 @_ZNK14obj_hash_entryI9func_declE7is_usedEv(ptr noundef nonnull align 8 dereferenceable(8) %12)
  %14 = xor i1 %13, true
  br label %15

15:                                               ; preds = %10, %4
  %16 = phi i1 [ false, %4 ], [ %14, %10 ]
  br i1 %16, label %17, label %21

17:                                               ; preds = %15
  %18 = getelementptr inbounds nuw %"class.core_hashtable<obj_hash_entry<func_decl>, obj_ptr_hash<func_decl>, ptr_eq<func_decl>>::iterator", ptr %3, i32 0, i32 0
  %19 = load ptr, ptr %18, align 8, !tbaa !279
  %20 = getelementptr inbounds nuw %class.obj_hash_entry.218, ptr %19, i32 1
  store ptr %20, ptr %18, align 8, !tbaa !279
  br label %4, !llvm.loop !881

21:                                               ; preds = %15
  ret void
}

; Function Attrs: mustprogress nounwind uwtable
define linkonce_odr hidden noundef i32 @_ZNK6vectorIPN7datalog4ruleELb0EjE4sizeEv(ptr noundef nonnull align 8 dereferenceable(8) %0) #7 comdat align 2 {
  %2 = alloca i32, align 4
  %3 = alloca ptr, align 8
  store ptr %0, ptr %3, align 8, !tbaa !514
  %4 = load ptr, ptr %3, align 8
  %5 = getelementptr inbounds nuw %class.vector.55, ptr %4, i32 0, i32 0
  %6 = load ptr, ptr %5, align 8, !tbaa !516
  %7 = icmp eq ptr %6, null
  br i1 %7, label %8, label %9

8:                                                ; preds = %1
  store i32 0, ptr %2, align 4
  br label %14

9:                                                ; preds = %1
  %10 = getelementptr inbounds nuw %class.vector.55, ptr %4, i32 0, i32 0
  %11 = load ptr, ptr %10, align 8, !tbaa !516
  %12 = getelementptr inbounds i32, ptr %11, i64 -1
  %13 = load i32, ptr %12, align 4, !tbaa !14
  store i32 %13, ptr %2, align 4
  br label %14

14:                                               ; preds = %9, %8
  %15 = load i32, ptr %2, align 4
  ret i32 %15
}

; Function Attrs: mustprogress nounwind uwtable
define linkonce_odr hidden noundef nonnull align 8 dereferenceable(8) ptr @_ZN14obj_hash_entryI9func_declE8get_dataEv(ptr noundef nonnull align 8 dereferenceable(8) %0) #7 comdat align 2 {
  %2 = alloca ptr, align 8
  store ptr %0, ptr %2, align 8, !tbaa !795
  %3 = load ptr, ptr %2, align 8
  %4 = getelementptr inbounds nuw %class.obj_hash_entry.218, ptr %3, i32 0, i32 0
  ret ptr %4
}

; Function Attrs: mustprogress uwtable
define linkonce_odr hidden void @_ZN14core_hashtableI14obj_hash_entryI9func_declE12obj_ptr_hashIS1_E6ptr_eqIS1_EE8iteratorC2EPS2_S9_(ptr noundef nonnull align 8 dereferenceable(16) %0, ptr noundef %1, ptr noundef %2) unnamed_addr #4 comdat align 2 {
  %4 = alloca ptr, align 8
  %5 = alloca ptr, align 8
  %6 = alloca ptr, align 8
  store ptr %0, ptr %4, align 8, !tbaa !277
  store ptr %1, ptr %5, align 8, !tbaa !795
  store ptr %2, ptr %6, align 8, !tbaa !795
  %7 = load ptr, ptr %4, align 8
  %8 = getelementptr inbounds nuw %"class.core_hashtable<obj_hash_entry<func_decl>, obj_ptr_hash<func_decl>, ptr_eq<func_decl>>::iterator", ptr %7, i32 0, i32 0
  %9 = load ptr, ptr %5, align 8, !tbaa !795
  store ptr %9, ptr %8, align 8, !tbaa !279
  %10 = getelementptr inbounds nuw %"class.core_hashtable<obj_hash_entry<func_decl>, obj_ptr_hash<func_decl>, ptr_eq<func_decl>>::iterator", ptr %7, i32 0, i32 1
  %11 = load ptr, ptr %6, align 8, !tbaa !795
  store ptr %11, ptr %10, align 8, !tbaa !880
  call void @_ZN14core_hashtableI14obj_hash_entryI9func_declE12obj_ptr_hashIS1_E6ptr_eqIS1_EE8iterator12move_to_usedEv(ptr noundef nonnull align 8 dereferenceable(16) %7)
  ret void
}

; Function Attrs: mustprogress nounwind uwtable
define linkonce_odr hidden noundef ptr @_ZNK6vectorIPN7datalog4ruleELb0EjE3endEv(ptr noundef nonnull align 8 dereferenceable(8) %0) #7 comdat align 2 {
  %2 = alloca ptr, align 8
  store ptr %0, ptr %2, align 8, !tbaa !514
  %3 = load ptr, ptr %2, align 8
  %4 = getelementptr inbounds nuw %class.vector.55, ptr %3, i32 0, i32 0
  %5 = load ptr, ptr %4, align 8, !tbaa !516
  %6 = call noundef i32 @_ZNK6vectorIPN7datalog4ruleELb0EjE4sizeEv(ptr noundef nonnull align 8 dereferenceable(8) %3)
  %7 = zext i32 %6 to i64
  %8 = getelementptr inbounds nuw ptr, ptr %5, i64 %7
  ret ptr %8
}

; Function Attrs: mustprogress nounwind uwtable
define linkonce_odr hidden noundef ptr @_ZNK6vectorIPN7datalog4ruleELb0EjE5beginEv(ptr noundef nonnull align 8 dereferenceable(8) %0) #7 comdat align 2 {
  %2 = alloca ptr, align 8
  store ptr %0, ptr %2, align 8, !tbaa !514
  %3 = load ptr, ptr %2, align 8
  %4 = getelementptr inbounds nuw %class.vector.55, ptr %3, i32 0, i32 0
  %5 = load ptr, ptr %4, align 8, !tbaa !516
  ret ptr %5
}

; Function Attrs: mustprogress nounwind uwtable
define linkonce_odr hidden noundef nonnull align 8 dereferenceable(8) ptr @_ZN14core_hashtableI14obj_hash_entryI9func_declE12obj_ptr_hashIS1_E6ptr_eqIS1_EE8iteratordeEv(ptr noundef nonnull align 8 dereferenceable(16) %0) #7 comdat align 2 {
  %2 = alloca ptr, align 8
  store ptr %0, ptr %2, align 8, !tbaa !277
  %3 = load ptr, ptr %2, align 8
  %4 = getelementptr inbounds nuw %"class.core_hashtable<obj_hash_entry<func_decl>, obj_ptr_hash<func_decl>, ptr_eq<func_decl>>::iterator", ptr %3, i32 0, i32 0
  %5 = load ptr, ptr %4, align 8, !tbaa !279
  %6 = call noundef nonnull align 8 dereferenceable(8) ptr @_ZN14obj_hash_entryI9func_declE8get_dataEv(ptr noundef nonnull align 8 dereferenceable(8) %5)
  ret ptr %6
}

; Function Attrs: mustprogress uwtable
define linkonce_odr hidden { ptr, ptr } @_ZNK14core_hashtableI14obj_hash_entryI9func_declE12obj_ptr_hashIS1_E6ptr_eqIS1_EE5beginEv(ptr noundef nonnull align 8 dereferenceable(20) %0) #4 comdat align 2 {
  %2 = alloca %"class.core_hashtable<obj_hash_entry<func_decl>, obj_ptr_hash<func_decl>, ptr_eq<func_decl>>::iterator", align 8
  %3 = alloca ptr, align 8
  store ptr %0, ptr %3, align 8, !tbaa !273
  %4 = load ptr, ptr %3, align 8
  %5 = getelementptr inbounds nuw %class.core_hashtable.83, ptr %4, i32 0, i32 0
  %6 = load ptr, ptr %5, align 8, !tbaa !275
  %7 = getelementptr inbounds nuw %class.core_hashtable.83, ptr %4, i32 0, i32 0
  %8 = load ptr, ptr %7, align 8, !tbaa !275
  %9 = getelementptr inbounds nuw %class.core_hashtable.83, ptr %4, i32 0, i32 1
  %10 = load i32, ptr %9, align 8, !tbaa !276
  %11 = zext i32 %10 to i64
  %12 = getelementptr inbounds nuw %class.obj_hash_entry.218, ptr %8, i64 %11
  call void @_ZN14core_hashtableI14obj_hash_entryI9func_declE12obj_ptr_hashIS1_E6ptr_eqIS1_EE8iteratorC2EPS2_S9_(ptr noundef nonnull align 8 dereferenceable(16) %2, ptr noundef %6, ptr noundef %12)
  %13 = load { ptr, ptr }, ptr %2, align 8
  ret { ptr, ptr } %13
}

; Function Attrs: mustprogress nounwind uwtable
define linkonce_odr hidden noundef i32 @_ZNK14core_hashtableI14obj_hash_entryI9func_declE12obj_ptr_hashIS1_E6ptr_eqIS1_EE4sizeEv(ptr noundef nonnull align 8 dereferenceable(20) %0) #7 comdat align 2 {
  %2 = alloca ptr, align 8
  store ptr %0, ptr %2, align 8, !tbaa !273
  %3 = load ptr, ptr %2, align 8
  %4 = getelementptr inbounds nuw %class.core_hashtable.83, ptr %3, i32 0, i32 2
  %5 = load i32, ptr %4, align 4, !tbaa !533
  ret i32 %5
}

; Function Attrs: mustprogress uwtable
define hidden noundef zeroext i1 @_ZNK7datalog8compiler23is_nonrecursive_stratumERK13obj_hashtableI9func_declE(ptr noundef nonnull align 8 dereferenceable(192) %0, ptr noundef nonnull align 8 dereferenceable(20) %1) #4 align 2 {
  %3 = alloca i1, align 1
  %4 = alloca ptr, align 8
  %5 = alloca ptr, align 8
  %6 = alloca ptr, align 8
  %7 = alloca %"class.core_hashtable<obj_hash_entry<func_decl>, obj_ptr_hash<func_decl>, ptr_eq<func_decl>>::iterator", align 8
  %8 = alloca ptr, align 8
  %9 = alloca ptr, align 8
  %10 = alloca ptr, align 8
  %11 = alloca i32, align 4
  store ptr %0, ptr %4, align 8, !tbaa !3
  store ptr %1, ptr %5, align 8, !tbaa !270
  %12 = load ptr, ptr %4, align 8
  %13 = load ptr, ptr %5, align 8, !tbaa !270
  %14 = call noundef i32 @_ZNK14core_hashtableI14obj_hash_entryI9func_declE12obj_ptr_hashIS1_E6ptr_eqIS1_EE4sizeEv(ptr noundef nonnull align 8 dereferenceable(20) %13)
  %15 = icmp ugt i32 %14, 1
  br i1 %15, label %16, label %17

16:                                               ; preds = %2
  store i1 false, ptr %3, align 1
  br label %50

17:                                               ; preds = %2
  call void @llvm.lifetime.start.p0(i64 8, ptr %6) #3
  call void @llvm.lifetime.start.p0(i64 16, ptr %7) #3
  %18 = load ptr, ptr %5, align 8, !tbaa !270
  %19 = call { ptr, ptr } @_ZNK14core_hashtableI14obj_hash_entryI9func_declE12obj_ptr_hashIS1_E6ptr_eqIS1_EE5beginEv(ptr noundef nonnull align 8 dereferenceable(20) %18)
  %20 = getelementptr inbounds nuw { ptr, ptr }, ptr %7, i32 0, i32 0
  %21 = extractvalue { ptr, ptr } %19, 0
  store ptr %21, ptr %20, align 8
  %22 = getelementptr inbounds nuw { ptr, ptr }, ptr %7, i32 0, i32 1
  %23 = extractvalue { ptr, ptr } %19, 1
  store ptr %23, ptr %22, align 8
  %24 = call noundef nonnull align 8 dereferenceable(8) ptr @_ZN14core_hashtableI14obj_hash_entryI9func_declE12obj_ptr_hashIS1_E6ptr_eqIS1_EE8iteratordeEv(ptr noundef nonnull align 8 dereferenceable(16) %7)
  %25 = load ptr, ptr %24, align 8, !tbaa !10
  call void @llvm.lifetime.end.p0(i64 16, ptr %7) #3
  store ptr %25, ptr %6, align 8, !tbaa !10
  call void @llvm.lifetime.start.p0(i64 8, ptr %8) #3
  %26 = getelementptr inbounds nuw %"class.datalog::compiler", ptr %12, i32 0, i32 1
  %27 = load ptr, ptr %26, align 8, !tbaa !485
  %28 = load ptr, ptr %6, align 8, !tbaa !10
  %29 = call noundef nonnull align 8 dereferenceable(8) ptr @_ZNK7datalog8rule_set19get_predicate_rulesEP9func_decl(ptr noundef nonnull align 8 dereferenceable(248) %27, ptr noundef %28)
  store ptr %29, ptr %8, align 8, !tbaa !509
  call void @llvm.lifetime.start.p0(i64 8, ptr %9) #3
  %30 = load ptr, ptr %8, align 8, !tbaa !509
  %31 = call noundef ptr @_ZNK6vectorIPN7datalog4ruleELb0EjE5beginEv(ptr noundef nonnull align 8 dereferenceable(8) %30)
  store ptr %31, ptr %9, align 8, !tbaa !511
  call void @llvm.lifetime.start.p0(i64 8, ptr %10) #3
  %32 = load ptr, ptr %8, align 8, !tbaa !509
  %33 = call noundef ptr @_ZNK6vectorIPN7datalog4ruleELb0EjE3endEv(ptr noundef nonnull align 8 dereferenceable(8) %32)
  store ptr %33, ptr %10, align 8, !tbaa !511
  br label %34

34:                                               ; preds = %45, %17
  %35 = load ptr, ptr %9, align 8, !tbaa !511
  %36 = load ptr, ptr %10, align 8, !tbaa !511
  %37 = icmp ne ptr %35, %36
  br i1 %37, label %38, label %48

38:                                               ; preds = %34
  %39 = load ptr, ptr %9, align 8, !tbaa !511
  %40 = load ptr, ptr %39, align 8, !tbaa !288
  %41 = load ptr, ptr %6, align 8, !tbaa !10
  %42 = call noundef zeroext i1 @_ZNK7datalog4rule10is_in_tailEPK9func_declb(ptr noundef nonnull align 8 dereferenceable(80) %40, ptr noundef %41, i1 noundef zeroext false)
  br i1 %42, label %43, label %44

43:                                               ; preds = %38
  store i1 false, ptr %3, align 1
  store i32 1, ptr %11, align 4
  br label %49

44:                                               ; preds = %38
  br label %45

45:                                               ; preds = %44
  %46 = load ptr, ptr %9, align 8, !tbaa !511
  %47 = getelementptr inbounds nuw ptr, ptr %46, i32 1
  store ptr %47, ptr %9, align 8, !tbaa !511
  br label %34, !llvm.loop !532

48:                                               ; preds = %34
  store i1 true, ptr %3, align 1
  store i32 1, ptr %11, align 4
  br label %49

49:                                               ; preds = %48, %43
  call void @llvm.lifetime.end.p0(i64 8, ptr %10) #3
  call void @llvm.lifetime.end.p0(i64 8, ptr %9) #3
  call void @llvm.lifetime.end.p0(i64 8, ptr %8) #3
  call void @llvm.lifetime.end.p0(i64 8, ptr %6) #3
  br label %50

50:                                               ; preds = %49, %16
  %51 = load i1, ptr %3, align 1
  ret i1 %51
}