; Function Attrs: mustprogress uwtable
define hidden noundef zeroext i1 @_ZNK7datalog8compiler23is_nonrecursive_stratumERK13obj_hashtableI9func_declE(ptr noundef nonnull readonly align 8 captures(none) dereferenceable(192) %0, ptr noundef nonnull readonly align 8 captures(none) dereferenceable(20) %1) local_unnamed_addr #3 align 2 {
  %3 = getelementptr inbounds nuw i8, ptr %1, i64 12
  %4 = load i32, ptr %3, align 4, !tbaa !527
  %5 = icmp ugt i32 %4, 1
  br i1 %5, label %.loopexit, label %6

6:                                                ; preds = %2
  %7 = load ptr, ptr %1, align 8, !tbaa !262
  %8 = getelementptr inbounds nuw i8, ptr %1, i64 8
  %9 = load i32, ptr %8, align 8, !tbaa !263
  %10 = zext i32 %9 to i64
  %11 = getelementptr inbounds nuw %class.obj_hash_entry.218, ptr %7, i64 %10
  %.not1.i.i.i = icmp eq i32 %9, 0
  br i1 %.not1.i.i.i, label %_ZNK14core_hashtableI14obj_hash_entryI9func_declE12obj_ptr_hashIS1_E6ptr_eqIS1_EE5beginEv.exit, label %.lr.ph.i.i.i

.lr.ph.i.i.i:                                     ; preds = %6, %13
  %.sroa.0.0.i = phi ptr [ %14, %13 ], [ %7, %6 ]
  %12 = load ptr, ptr %.sroa.0.0.i, align 8, !tbaa !264
  %switch.i.i.i = icmp ult ptr %12, inttoptr (i64 2 to ptr)
  br i1 %switch.i.i.i, label %13, label %_ZNK14core_hashtableI14obj_hash_entryI9func_declE12obj_ptr_hashIS1_E6ptr_eqIS1_EE5beginEv.exit

13:                                               ; preds = %.lr.ph.i.i.i
  %14 = getelementptr inbounds nuw i8, ptr %.sroa.0.0.i, i64 8
  %.not.i.i.i = icmp eq ptr %14, %11
  br i1 %.not.i.i.i, label %_ZNK14core_hashtableI14obj_hash_entryI9func_declE12obj_ptr_hashIS1_E6ptr_eqIS1_EE5beginEv.exit, label %.lr.ph.i.i.i, !llvm.loop !266

_ZNK14core_hashtableI14obj_hash_entryI9func_declE12obj_ptr_hashIS1_E6ptr_eqIS1_EE5beginEv.exit: ; preds = %.lr.ph.i.i.i, %13, %6
  %.sroa.0.1.i = phi ptr [ %7, %6 ], [ %11, %13 ], [ %.sroa.0.0.i, %.lr.ph.i.i.i ]
  %15 = load ptr, ptr %.sroa.0.1.i, align 8, !tbaa !23
  %16 = getelementptr inbounds nuw i8, ptr %0, i64 8
  %17 = load ptr, ptr %16, align 8, !tbaa !488
  %18 = tail call noundef nonnull align 8 dereferenceable(8) ptr @_ZNK7datalog8rule_set19get_predicate_rulesEP9func_decl(ptr noundef nonnull align 8 dereferenceable(248) %17, ptr noundef %15)
  %19 = load ptr, ptr %18, align 8, !tbaa !516
  %20 = icmp eq ptr %19, null
  br i1 %20, label %.loopexit, label %_ZNK6vectorIPN7datalog4ruleELb0EjE3endEv.exit

_ZNK6vectorIPN7datalog4ruleELb0EjE3endEv.exit:    ; preds = %_ZNK14core_hashtableI14obj_hash_entryI9func_declE12obj_ptr_hashIS1_E6ptr_eqIS1_EE5beginEv.exit
  %21 = getelementptr inbounds i8, ptr %19, i64 -4
  %22 = load i32, ptr %21, align 4, !tbaa !24
  %23 = zext i32 %22 to i64
  %24 = getelementptr inbounds nuw ptr, ptr %19, i64 %23
  %.not13 = icmp eq i32 %22, 0
  br i1 %.not13, label %.loopexit, label %.lr.ph

.lr.ph:                                           ; preds = %_ZNK6vectorIPN7datalog4ruleELb0EjE3endEv.exit, %.lr.ph
  %.01214 = phi ptr [ %27, %.lr.ph ], [ %19, %_ZNK6vectorIPN7datalog4ruleELb0EjE3endEv.exit ]
  %25 = load ptr, ptr %.01214, align 8, !tbaa !517
  %26 = tail call noundef zeroext i1 @_ZNK7datalog4rule10is_in_tailEPK9func_declb(ptr noundef nonnull align 8 dereferenceable(80) %25, ptr noundef %15, i1 noundef zeroext false)
  %27 = getelementptr inbounds nuw i8, ptr %.01214, i64 8
  %.not = icmp eq ptr %27, %24
  %or.cond = select i1 %26, i1 true, i1 %.not
  br i1 %or.cond, label %.loopexit.loopexit, label %.lr.ph, !llvm.loop !533

.loopexit.loopexit:                               ; preds = %.lr.ph
  %.0.ph = xor i1 %26, true
  br label %.loopexit

.loopexit:                                        ; preds = %_ZNK14core_hashtableI14obj_hash_entryI9func_declE12obj_ptr_hashIS1_E6ptr_eqIS1_EE5beginEv.exit, %.loopexit.loopexit, %_ZNK6vectorIPN7datalog4ruleELb0EjE3endEv.exit, %2
  %.0 = phi i1 [ false, %2 ], [ true, %_ZNK6vectorIPN7datalog4ruleELb0EjE3endEv.exit ], [ %.0.ph, %.loopexit.loopexit ], [ true, %_ZNK14core_hashtableI14obj_hash_entryI9func_declE12obj_ptr_hashIS1_E6ptr_eqIS1_EE5beginEv.exit ]
  ret i1 %.0
}